; ModuleID = '58/1193.c'
source_filename = "58/1193.c"
target datalayout = "e-m:e-p270:32:32-p271:32:32-p272:64:64-i64:64-f80:128-n8:16:32:64-S128"
target triple = "x86_64-pc-linux-gnu"

@.str = private unnamed_addr constant [3 x i8] c"0\0A\00", align 1
@.str.1 = private unnamed_addr constant [3 x i8] c"1\0A\00", align 1

; Function Attrs: noinline nounwind uwtable
define dso_local i32 @main() #0 {
  %1 = alloca i32, align 4
  %2 = alloca i32, align 4
  %3 = alloca i32, align 4
  %4 = alloca i32, align 4
  %5 = alloca i32, align 4
  %6 = alloca i32, align 4
  %7 = alloca [100 x [81 x i8]], align 16
  %8 = alloca [100 x i8], align 16
  store i32 0, i32* %1, align 4
  %9 = getelementptr inbounds [100 x i8], [100 x i8]* %8, i64 0, i64 0
  %10 = call i32 (i8*, ...) bitcast (i32 (...)* @gets to i32 (i8*, ...)*)(i8* %9)
  %11 = getelementptr inbounds [100 x i8], [100 x i8]* %8, i64 0, i64 0
  %12 = call i32 @atoi(i8* %11) #3
  store i32 %12, i32* %2, align 4
  store i32 0, i32* %3, align 4
  br label %13

13:                                               ; preds = %24, %0
  %14 = load i32, i32* %3, align 4
  %15 = load i32, i32* %2, align 4
  %16 = icmp slt i32 %14, %15
  br i1 %16, label %17, label %27

17:                                               ; preds = %13
  %18 = getelementptr inbounds [100 x [81 x i8]], [100 x [81 x i8]]* %7, i64 0, i64 0
  %19 = load i32, i32* %3, align 4
  %20 = sext i32 %19 to i64
  %21 = getelementptr inbounds [81 x i8], [81 x i8]* %18, i64 %20
  %22 = getelementptr inbounds [81 x i8], [81 x i8]* %21, i64 0, i64 0
  %23 = call i32 (i8*, ...) bitcast (i32 (...)* @gets to i32 (i8*, ...)*)(i8* %22)
  br label %24

24:                                               ; preds = %17
  %25 = load i32, i32* %3, align 4
  %26 = add nsw i32 %25, 1
  store i32 %26, i32* %3, align 4
  br label %13

27:                                               ; preds = %13
  store i32 0, i32* %3, align 4
  br label %28

28:                                               ; preds = %88, %27
  %29 = load i32, i32* %3, align 4
  %30 = load i32, i32* %2, align 4
  %31 = icmp slt i32 %29, %30
  br i1 %31, label %32, label %91

32:                                               ; preds = %28
  %33 = getelementptr inbounds [100 x [81 x i8]], [100 x [81 x i8]]* %7, i64 0, i64 0
  %34 = load i32, i32* %3, align 4
  %35 = sext i32 %34 to i64
  %36 = getelementptr inbounds [81 x i8], [81 x i8]* %33, i64 %35
  %37 = getelementptr inbounds [81 x i8], [81 x i8]* %36, i64 0, i64 0
  %38 = call i64 @strlen(i8* %37) #3
  %39 = trunc i64 %38 to i32
  store i32 %39, i32* %6, align 4
  store i32 1, i32* %5, align 4
  %40 = load i32, i32* %3, align 4
  %41 = sext i32 %40 to i64
  %42 = getelementptr inbounds [100 x [81 x i8]], [100 x [81 x i8]]* %7, i64 0, i64 %41
  %43 = getelementptr inbounds [81 x i8], [81 x i8]* %42, i64 0, i64 0
  %44 = getelementptr inbounds i8, i8* %43, i64 0
  %45 = load i8, i8* %44, align 1
  %46 = call i32 @start(i8 signext %45)
  %47 = icmp eq i32 %46, 0
  br i1 %47, label %48, label %50

48:                                               ; preds = %32
  %49 = call i32 (i8*, ...) @printf(i8* getelementptr inbounds ([3 x i8], [3 x i8]* @.str, i64 0, i64 0))
  br label %50

50:                                               ; preds = %48, %32
  %51 = load i32, i32* %3, align 4
  %52 = sext i32 %51 to i64
  %53 = getelementptr inbounds [100 x [81 x i8]], [100 x [81 x i8]]* %7, i64 0, i64 %52
  %54 = getelementptr inbounds [81 x i8], [81 x i8]* %53, i64 0, i64 0
  %55 = getelementptr inbounds i8, i8* %54, i64 0
  %56 = load i8, i8* %55, align 1
  %57 = call i32 @start(i8 signext %56)
  %58 = icmp eq i32 %57, 1
  br i1 %58, label %59, label %87

59:                                               ; preds = %50
  store i32 0, i32* %4, align 4
  br label %60

60:                                               ; preds = %76, %59
  %61 = load i32, i32* %4, align 4
  %62 = load i32, i32* %6, align 4
  %63 = icmp slt i32 %61, %62
  br i1 %63, label %64, label %79

64:                                               ; preds = %60
  %65 = load i32, i32* %3, align 4
  %66 = sext i32 %65 to i64
  %67 = getelementptr inbounds [100 x [81 x i8]], [100 x [81 x i8]]* %7, i64 0, i64 %66
  %68 = getelementptr inbounds [81 x i8], [81 x i8]* %67, i64 0, i64 0
  %69 = load i32, i32* %4, align 4
  %70 = sext i32 %69 to i64
  %71 = getelementptr inbounds i8, i8* %68, i64 %70
  %72 = load i8, i8* %71, align 1
  %73 = call i32 @sym(i8 signext %72)
  %74 = load i32, i32* %5, align 4
  %75 = mul nsw i32 %74, %73
  store i32 %75, i32* %5, align 4
  br label %76

76:                                               ; preds = %64
  %77 = load i32, i32* %4, align 4
  %78 = add nsw i32 %77, 1
  store i32 %78, i32* %4, align 4
  br label %60

79:                                               ; preds = %60
  %80 = load i32, i32* %5, align 4
  %81 = icmp eq i32 %80, 1
  br i1 %81, label %82, label %84

82:                                               ; preds = %79
  %83 = call i32 (i8*, ...) @printf(i8* getelementptr inbounds ([3 x i8], [3 x i8]* @.str.1, i64 0, i64 0))
  br label %86

84:                                               ; preds = %79
  %85 = call i32 (i8*, ...) @printf(i8* getelementptr inbounds ([3 x i8], [3 x i8]* @.str, i64 0, i64 0))
  br label %86

86:                                               ; preds = %84, %82
  br label %87

87:                                               ; preds = %86, %50
  br label %88

88:                                               ; preds = %87
  %89 = load i32, i32* %3, align 4
  %90 = add nsw i32 %89, 1
  store i32 %90, i32* %3, align 4
  br label %28

91:                                               ; preds = %28
  ret i32 0
}

declare dso_local i32 @gets(...) #1

; Function Attrs: nounwind readonly
declare dso_local i32 @atoi(i8*) #2

; Function Attrs: nounwind readonly
declare dso_local i64 @strlen(i8*) #2

; Function Attrs: noinline nounwind uwtable
define dso_local i32 @start(i8 signext %0) #0 {
  %2 = alloca i8, align 1
  %3 = alloca i32, align 4
  store i8 %0, i8* %2, align 1
  %4 = load i8, i8* %2, align 1
  %5 = sext i8 %4 to i32
  %6 = icmp sge i32 %5, 97
  br i1 %6, label %7, label %11

7:                                                ; preds = %1
  %8 = load i8, i8* %2, align 1
  %9 = sext i8 %8 to i32
  %10 = icmp sle i32 %9, 122
  br i1 %10, label %23, label %11

11:                                               ; preds = %7, %1
  %12 = load i8, i8* %2, align 1
  %13 = sext i8 %12 to i32
  %14 = icmp sge i32 %13, 65
  br i1 %14, label %15, label %19

15:                                               ; preds = %11
  %16 = load i8, i8* %2, align 1
  %17 = sext i8 %16 to i32
  %18 = icmp sle i32 %17, 90
  br i1 %18, label %23, label %19

19:                                               ; preds = %15, %11
  %20 = load i8, i8* %2, align 1
  %21 = sext i8 %20 to i32
  %22 = icmp eq i32 %21, 95
  br i1 %22, label %23, label %24

23:                                               ; preds = %19, %15, %7
  store i32 1, i32* %3, align 4
  br label %25

24:                                               ; preds = %19
  store i32 0, i32* %3, align 4
  br label %25

25:                                               ; preds = %24, %23
  %26 = load i32, i32* %3, align 4
  ret i32 %26
}

declare dso_local i32 @printf(i8*, ...) #1

; Function Attrs: noinline nounwind uwtable
define dso_local i32 @sym(i8 signext %0) #0 {
  %2 = alloca i8, align 1
  %3 = alloca i32, align 4
  store i8 %0, i8* %2, align 1
  %4 = load i8, i8* %2, align 1
  %5 = sext i8 %4 to i32
  %6 = icmp sge i32 %5, 97
  br i1 %6, label %7, label %11

7:                                                ; preds = %1
  %8 = load i8, i8* %2, align 1
  %9 = sext i8 %8 to i32
  %10 = icmp sle i32 %9, 122
  br i1 %10, label %31, label %11

11:                                               ; preds = %7, %1
  %12 = load i8, i8* %2, align 1
  %13 = sext i8 %12 to i32
  %14 = icmp sge i32 %13, 65
  br i1 %14, label %15, label %19

15:                                               ; preds = %11
  %16 = load i8, i8* %2, align 1
  %17 = sext i8 %16 to i32
  %18 = icmp sle i32 %17, 90
  br i1 %18, label %31, label %19

19:                                               ; preds = %15, %11
  %20 = load i8, i8* %2, align 1
  %21 = sext i8 %20 to i32
  %22 = icmp sge i32 %21, 48
  br i1 %22, label %23, label %27

23:                                               ; preds = %19
  %24 = load i8, i8* %2, align 1
  %25 = sext i8 %24 to i32
  %26 = icmp sle i32 %25, 57
  br i1 %26, label %31, label %27

27:                                               ; preds = %23, %19
  %28 = load i8, i8* %2, align 1
  %29 = sext i8 %28 to i32
  %30 = icmp eq i32 %29, 95
  br i1 %30, label %31, label %32

31:                                               ; preds = %27, %23, %15, %7
  store i32 1, i32* %3, align 4
  br label %33

32:                                               ; preds = %27
  store i32 0, i32* %3, align 4
  br label %33

33:                                               ; preds = %32, %31
  %34 = load i32, i32* %3, align 4
  ret i32 %34
}


!llvm.module.flags = !{!0}
!llvm.ident = !{!1}

!0 = !{i32 1, !"wchar_size", i32 4}
!1 = !{!"clang version 10.0.0-4ubuntu1 "}
